target datalayout = "e-m:e-p270:32:32-p271:32:32-p272:64:64-i64:64-i128:128-f80:128-n8:16:32:64-S128"
target triple = "x86_64-pc-linux-gnu"

%struct.aiString = type { i32, [1024 x i8] }
%class.aiMatrix4x4t = type { float, float, float, float, float, float, float, float, float, float, float, float, float, float, float, float }
%struct.aiNode = type { %struct.aiString, %class.aiMatrix4x4t, ptr, i32, ptr, i32, ptr, ptr }

; Function Attrs: mustprogress uwtable
define internal noundef ptr @_ZL17get_node_for_meshjP6aiNode(i32 noundef %0, ptr noundef %1) #3 {
  %3 = alloca ptr, align 8
  %4 = alloca i32, align 4
  %5 = alloca ptr, align 8
  %6 = alloca i64, align 8
  %7 = alloca i32, align 4
  %8 = alloca i64, align 8
  %9 = alloca ptr, align 8
  store i32 %0, ptr %4, align 4
  store ptr %1, ptr %5, align 8
  call void @llvm.lifetime.start.p0(i64 8, ptr %6) #4
  store i64 0, ptr %6, align 8
  br label %10

10:                                               ; preds = %30, %2
  %11 = load i64, ptr %6, align 8
  %12 = load ptr, ptr %5, align 8
  %13 = getelementptr inbounds nuw %struct.aiNode, ptr %12, i32 0, i32 5
  %14 = load i32, ptr %13, align 8
  %15 = zext i32 %14 to i64
  %16 = icmp ult i64 %11, %15
  br i1 %16, label %18, label %17

17:                                               ; preds = %10
  store i32 2, ptr %7, align 4
  br label %33

18:                                               ; preds = %10
  %19 = load ptr, ptr %5, align 8
  %20 = getelementptr inbounds nuw %struct.aiNode, ptr %19, i32 0, i32 6
  %21 = load ptr, ptr %20, align 8
  %22 = load i64, ptr %6, align 8
  %23 = getelementptr inbounds nuw i32, ptr %21, i64 %22
  %24 = load i32, ptr %23, align 4
  %25 = load i32, ptr %4, align 4
  %26 = icmp eq i32 %24, %25
  br i1 %26, label %27, label %29

27:                                               ; preds = %18
  %28 = load ptr, ptr %5, align 8
  store ptr %28, ptr %3, align 8
  store i32 1, ptr %7, align 4
  br label %33

29:                                               ; preds = %18
  br label %30

30:                                               ; preds = %29
  %31 = load i64, ptr %6, align 8
  %32 = add i64 %31, 1
  store i64 %32, ptr %6, align 8
  br label %10, !llvm.loop !53

33:                                               ; preds = %27, %17
  call void @llvm.lifetime.end.p0(i64 8, ptr %6) #4
  %34 = load i32, ptr %7, align 4
  switch i32 %34, label %69 [
    i32 2, label %35
    i32 1, label %67
  ]

35:                                               ; preds = %33
  call void @llvm.lifetime.start.p0(i64 8, ptr %8) #4
  store i64 0, ptr %8, align 8
  br label %36

36:                                               ; preds = %61, %35
  %37 = load i64, ptr %8, align 8
  %38 = load ptr, ptr %5, align 8
  %39 = getelementptr inbounds nuw %struct.aiNode, ptr %38, i32 0, i32 3
  %40 = load i32, ptr %39, align 8
  %41 = zext i32 %40 to i64
  %42 = icmp ult i64 %37, %41
  br i1 %42, label %44, label %43

43:                                               ; preds = %36
  store i32 5, ptr %7, align 4
  br label %64

44:                                               ; preds = %36
  call void @llvm.lifetime.start.p0(i64 8, ptr %9) #4
  %45 = load i32, ptr %4, align 4
  %46 = load ptr, ptr %5, align 8
  %47 = getelementptr inbounds nuw %struct.aiNode, ptr %46, i32 0, i32 4
  %48 = load ptr, ptr %47, align 8
  %49 = load i64, ptr %8, align 8
  %50 = getelementptr inbounds nuw ptr, ptr %48, i64 %49
  %51 = load ptr, ptr %50, align 8
  %52 = call noundef ptr @_ZL17get_node_for_meshjP6aiNode(i32 noundef %45, ptr noundef %51)
  store ptr %52, ptr %9, align 8
  %53 = load ptr, ptr %9, align 8
  %54 = icmp ne ptr %53, null
  br i1 %54, label %55, label %57

55:                                               ; preds = %44
  %56 = load ptr, ptr %9, align 8
  store ptr %56, ptr %3, align 8
  store i32 1, ptr %7, align 4
  br label %58

57:                                               ; preds = %44
  store i32 0, ptr %7, align 4
  br label %58

58:                                               ; preds = %57, %55
  call void @llvm.lifetime.end.p0(i64 8, ptr %9) #4
  %59 = load i32, ptr %7, align 4
  switch i32 %59, label %64 [
    i32 0, label %60
  ]

60:                                               ; preds = %58
  br label %61

61:                                               ; preds = %60
  %62 = load i64, ptr %8, align 8
  %63 = add i64 %62, 1
  store i64 %63, ptr %8, align 8
  br label %36, !llvm.loop !54

64:                                               ; preds = %58, %43
  call void @llvm.lifetime.end.p0(i64 8, ptr %8) #4
  %65 = load i32, ptr %7, align 4
  switch i32 %65, label %69 [
    i32 5, label %66
    i32 1, label %67
  ]

66:                                               ; preds = %64
  store ptr null, ptr %3, align 8
  br label %67

67:                                               ; preds = %66, %64, %33
  %68 = load ptr, ptr %3, align 8
  ret ptr %68

69:                                               ; preds = %64, %33
  unreachable
}