; Function Attrs: mustprogress nofree nosync nounwind willreturn memory(read, inaccessiblemem: none) uwtable
define internal fastcc noundef ptr @_ZL17get_node_for_meshjP6aiNode(i32 noundef range(i32 0, -1) %0, ptr noundef readonly captures(ret: address, provenance) %1) unnamed_addr #13 {
  %3 = getelementptr inbounds nuw i8, ptr %1, i64 1120
  %4 = load i32, ptr %3, align 8
  %5 = zext i32 %4 to i64
  %.not36 = icmp eq i32 %4, 0
  br i1 %.not36, label %.preheader, label %.lr.ph

.lr.ph:                                           ; preds = %2
  %6 = getelementptr inbounds nuw i8, ptr %1, i64 1128
  %7 = load ptr, ptr %6, align 8
  br label %15

8:                                                ; preds = %15
  %9 = add nuw nsw i64 %.02230, 1
  %exitcond.not = icmp eq i64 %9, %5
  br i1 %exitcond.not, label %.preheader, label %15, !llvm.loop !268

.preheader:                                       ; preds = %8, %2
  %10 = getelementptr inbounds nuw i8, ptr %1, i64 1104
  %11 = load i32, ptr %10, align 8
  %12 = zext i32 %11 to i64
  %.not2831.not = icmp eq i32 %11, 0
  br i1 %.not2831.not, label %.thread, label %.lr.ph33

.lr.ph33:                                         ; preds = %.preheader
  %13 = getelementptr inbounds nuw i8, ptr %1, i64 1112
  %14 = load ptr, ptr %13, align 8
  br label %21

15:                                               ; preds = %.lr.ph, %8
  %.02230 = phi i64 [ 0, %.lr.ph ], [ %9, %8 ]
  %16 = getelementptr inbounds nuw i32, ptr %7, i64 %.02230
  %17 = load i32, ptr %16, align 4
  %18 = icmp eq i32 %17, %0
  br i1 %18, label %.thread, label %8

19:                                               ; preds = %21
  %20 = add nuw nsw i64 %.01832, 1
  %exitcond38.not = icmp eq i64 %20, %12
  br i1 %exitcond38.not, label %.thread, label %21, !llvm.loop !269

21:                                               ; preds = %.lr.ph33, %19
  %.01832 = phi i64 [ 0, %.lr.ph33 ], [ %20, %19 ]
  %22 = getelementptr inbounds nuw ptr, ptr %14, i64 %.01832
  %23 = load ptr, ptr %22, align 8
  %24 = tail call fastcc noundef ptr @_ZL17get_node_for_meshjP6aiNode(i32 noundef %0, ptr noundef %23)
  %.not = icmp eq ptr %24, null
  br i1 %.not, label %19, label %.thread

.thread:                                          ; preds = %15, %19, %21, %.preheader
  %.1 = phi ptr [ null, %.preheader ], [ null, %19 ], [ %24, %21 ], [ %1, %15 ]
  ret ptr %.1
}